; Function Attrs: mustprogress uwtable
define noundef zeroext i1 @_ZN32pxrInternal_v0_24__pxrReserved__8SdfLayer13WriteDataFileERKNSt7__cxx1112basic_stringIcSt11char_traitsIcESaIcEEE(ptr noundef nonnull readonly align 8 captures(none) dereferenceable(557) %0, ptr noundef nonnull align 8 dereferenceable(32) %1) local_unnamed_addr #3 align 2 personality ptr @__gxx_personality_v0 {
  %3 = alloca %"class.pxrInternal_v0_24__pxrReserved__::TfCallContext", align 8
  %4 = alloca %"class.std::basic_ofstream", align 8
  %5 = tail call noundef ptr @_ZNKSt7__cxx1112basic_stringIcSt11char_traitsIcESaIcEE5c_strEv(ptr noundef nonnull align 8 dereferenceable(32) %1) #33
  call void @_ZNSt14basic_ofstreamIcSt11char_traitsIcEEC1EPKcSt13_Ios_Openmode(ptr noundef nonnull align 8 dereferenceable(248) %4, ptr noundef %5, i32 noundef 16)
  %6 = getelementptr inbounds nuw i8, ptr %0, i64 136
  call void @llvm.lifetime.start.p0(i64 40, ptr nonnull %3)
  %7 = load ptr, ptr %6, align 8
  %.not.i = icmp eq ptr %7, null
  br i1 %.not.i, label %8, label %13

8:                                                ; preds = %2
  store ptr @.str.146, ptr %3, align 8
  %9 = getelementptr inbounds nuw i8, ptr %3, i64 8
  store ptr @__func__._ZNK32pxrInternal_v0_24__pxrReserved__8TfRefPtrINS_10Tf_RemnantEEptEv, ptr %9, align 8
  %10 = getelementptr inbounds nuw i8, ptr %3, i64 16
  store i64 936, ptr %10, align 8
  %11 = getelementptr inbounds nuw i8, ptr %3, i64 24
  store ptr @__PRETTY_FUNCTION__._ZNK32pxrInternal_v0_24__pxrReserved__8TfRefPtrINS_15SdfAbstractDataEEptEv, ptr %11, align 8
  %12 = getelementptr inbounds nuw i8, ptr %3, i64 32
  store i8 0, ptr %12, align 8
  invoke void @_ZN32pxrInternal_v0_24__pxrReserved__40Tf_PostNullSmartPtrDereferenceFatalErrorERKNS_13TfCallContextEPKc(ptr noundef nonnull align 8 dereferenceable(33) %3, ptr noundef nonnull @_ZTSN32pxrInternal_v0_24__pxrReserved__8TfRefPtrINS_15SdfAbstractDataEEE) #31
          to label %.noexc unwind label %24

.noexc:                                           ; preds = %8
  unreachable

13:                                               ; preds = %2
  call void @llvm.lifetime.end.p0(i64 40, ptr nonnull %3)
  %14 = load ptr, ptr %7, align 8
  %15 = getelementptr inbounds nuw i8, ptr %14, i64 56
  %16 = load ptr, ptr %15, align 8
  invoke void %16(ptr noundef nonnull align 8 dereferenceable(24) %7, ptr noundef nonnull align 8 dereferenceable(8) %4)
          to label %17 unwind label %24

17:                                               ; preds = %13
  %18 = load ptr, ptr %4, align 8
  %19 = getelementptr i8, ptr %18, i64 -24
  %20 = load i64, ptr %19, align 8
  %21 = getelementptr inbounds i8, ptr %4, i64 %20
  %22 = invoke noundef zeroext i1 @_ZNKSt9basic_iosIcSt11char_traitsIcEE4goodEv(ptr noundef nonnull align 8 dereferenceable(264) %21)
          to label %23 unwind label %24

23:                                               ; preds = %17
  call void @_ZNSt14basic_ofstreamIcSt11char_traitsIcEED1Ev(ptr noundef nonnull align 8 dereferenceable(248) %4) #33
  ret i1 %22

24:                                               ; preds = %8, %17, %13
  %25 = landingpad { ptr, i32 }
          cleanup
  call void @_ZNSt14basic_ofstreamIcSt11char_traitsIcEED1Ev(ptr noundef nonnull align 8 dereferenceable(248) %4) #33
  resume { ptr, i32 } %25
}